; Function Attrs: nounwind uwtable
define internal noundef range(i32 0, 4) i32 @lj_ffh_coroutine_wrap_aux(ptr noundef %0) #2 {
  %2 = getelementptr inbounds nuw i8, ptr %0, i64 32
  %3 = load ptr, ptr %2, align 8, !tbaa !19
  %4 = getelementptr inbounds i8, ptr %3, i64 -16
  %5 = load i64, ptr %4, align 8, !tbaa !14
  %6 = and i64 %5, 140737488355327
  %7 = inttoptr i64 %6 to ptr
  %8 = getelementptr inbounds nuw i8, ptr %7, i64 48
  %9 = load i64, ptr %8, align 8, !tbaa !14
  %10 = and i64 %9, 140737488355327
  %11 = inttoptr i64 %10 to ptr
  %12 = getelementptr inbounds nuw i8, ptr %11, i64 80
  %13 = load ptr, ptr %12, align 8, !tbaa !69
  %.not.i = icmp eq ptr %13, null
  br i1 %.not.i, label %14, label %26

14:                                               ; preds = %1
  %15 = getelementptr inbounds nuw i8, ptr %11, i64 11
  %16 = load i8, ptr %15, align 1, !tbaa !67
  %17 = icmp ugt i8 %16, 1
  br i1 %17, label %26, label %18

18:                                               ; preds = %14
  %19 = icmp eq i8 %16, 0
  br i1 %19, label %20, label %28

20:                                               ; preds = %18
  %21 = getelementptr inbounds nuw i8, ptr %11, i64 40
  %22 = load ptr, ptr %21, align 8, !tbaa !4
  %23 = getelementptr inbounds nuw i8, ptr %11, i64 32
  %24 = load ptr, ptr %23, align 8, !tbaa !19
  %25 = icmp eq ptr %22, %24
  br i1 %25, label %26, label %28

26:                                               ; preds = %20, %14, %1
  %27 = phi i32 [ 1318, %20 ], [ 1318, %14 ], [ 1286, %1 ]
  tail call void @lj_err_caller(ptr noundef nonnull %0, i32 noundef %27) #10
  unreachable

28:                                               ; preds = %20, %18
  %29 = getelementptr inbounds nuw i8, ptr %0, i64 40
  %30 = load ptr, ptr %29, align 8, !tbaa !4
  %31 = ptrtoint ptr %30 to i64
  %32 = ptrtoint ptr %3 to i64
  %33 = sub i64 %31, %32
  %34 = lshr exact i64 %33, 3
  %35 = trunc i64 %34 to i32
  %36 = tail call i32 @lj_state_cpgrowstack(ptr noundef nonnull %11, i32 noundef %35) #11
  %.not21.i = icmp eq i32 %36, 0
  br i1 %.not21.i, label %ffh_resume.exit, label %37

37:                                               ; preds = %28
  %38 = getelementptr inbounds nuw i8, ptr %11, i64 40
  %39 = load ptr, ptr %38, align 8, !tbaa !4
  %40 = getelementptr inbounds i8, ptr %39, i64 -8
  store ptr %40, ptr %38, align 8, !tbaa !4
  %41 = load i64, ptr %40, align 8, !tbaa !14
  %42 = and i64 %41, 140737488355327
  %43 = inttoptr i64 %42 to ptr
  %44 = getelementptr inbounds nuw i8, ptr %43, i64 24
  tail call void @lj_err_callermsg(ptr noundef nonnull %0, ptr noundef nonnull %44) #10
  unreachable

ffh_resume.exit:                                  ; preds = %28
  ret i32 0
}